target datalayout = "e-m:e-p270:32:32-p271:32:32-p272:64:64-i64:64-i128:128-f80:128-n8:16:32:64-S128"
target triple = "x86_64-pc-linux-gnu"

%struct.AVCodecContext = type { ptr, i32, i32, ptr, i32, i32, ptr, ptr, ptr, i64, i32, i32, ptr, i32, %struct.AVRational, %struct.AVRational, %struct.AVRational, i32, i32, i32, i32, i32, %struct.AVRational, i32, i32, i32, i32, i32, i32, i32, i32, i32, i32, i32, ptr, ptr, i32, float, float, float, float, float, float, float, float, float, i32, i32, i32, i32, i32, i32, i32, i32, i32, i32, i32, i32, ptr, ptr, ptr, i32, i32, i32, i32, i32, i32, i32, i32, i32, i32, %struct.AVChannelLayout, i32, i32, i32, i32, i32, i32, i32, i32, ptr, i32, i32, i32, float, float, i32, i32, i32, i32, i32, ptr, i64, i64, float, float, i32, i32, ptr, ptr, i32, i32, i32, i32, i32, ptr, ptr, ptr, ptr, i32, i32, [8 x i64], i32, i32, i32, i32, i32, i32, i32, ptr, ptr, i32, i32, i32, i32, i32, i32, i32, i32, i32, i32, ptr, ptr, i32, i32, ptr, ptr, ptr, ptr, i32, i32, i64, i32, i32, i64, ptr, i64, ptr, i32, ptr, i32 }
%struct.AVRational = type { i32, i32 }
%struct.AVChannelLayout = type { i32, i32, %union.anon.0, ptr }
%union.anon.0 = type { i64 }
%struct.BonkContext = type { %struct.GetBitContext, i32, ptr, i64, i32, i32, i64, i32, i32, i32, i32, i32, [2 x [2048 x i32]], [2048 x i32], [2 x ptr], ptr, [2048 x i8], ptr }
%struct.GetBitContext = type { ptr, ptr, i32, i32, i32 }

@.str.2 = private unnamed_addr constant [22 x i8] c"Unsupported version.\0A\00", align 1

; Function Attrs: cold nounwind optsize uwtable
define internal i32 @bonk_init(ptr noundef %0) #0 {
  %2 = alloca i32, align 4
  %3 = alloca ptr, align 8
  %4 = alloca ptr, align 8
  %5 = alloca i32, align 4
  %6 = alloca i32, align 4
  store ptr %0, ptr %3, align 8, !tbaa !4
  call void @llvm.lifetime.start.p0(i64 8, ptr %4) #11
  %7 = load ptr, ptr %3, align 8, !tbaa !4
  %8 = getelementptr inbounds nuw %struct.AVCodecContext, ptr %7, i32 0, i32 6
  %9 = load ptr, ptr %8, align 8, !tbaa !9
  store ptr %9, ptr %4, align 8, !tbaa !29
  %10 = load ptr, ptr %3, align 8, !tbaa !4
  %11 = getelementptr inbounds nuw %struct.AVCodecContext, ptr %10, i32 0, i32 70
  store i32 6, ptr %11, align 4, !tbaa !31
  %12 = load ptr, ptr %3, align 8, !tbaa !4
  %13 = getelementptr inbounds nuw %struct.AVCodecContext, ptr %12, i32 0, i32 13
  %14 = load i32, ptr %13, align 8, !tbaa !32
  %15 = icmp slt i32 %14, 17
  br i1 %15, label %16, label %17

16:                                               ; preds = %1
  store i32 -22, ptr %2, align 4
  store i32 1, ptr %5, align 4
  br label %258

17:                                               ; preds = %1
  %18 = load ptr, ptr %3, align 8, !tbaa !4
  %19 = getelementptr inbounds nuw %struct.AVCodecContext, ptr %18, i32 0, i32 12
  %20 = load ptr, ptr %19, align 8, !tbaa !33
  %21 = getelementptr inbounds i8, ptr %20, i64 0
  %22 = load i8, ptr %21, align 1, !tbaa !34
  %23 = icmp ne i8 %22, 0
  br i1 %23, label %24, label %26

24:                                               ; preds = %17
  %25 = load ptr, ptr %3, align 8, !tbaa !4
  call void (ptr, i32, ptr, ...) @av_log(ptr noundef %25, i32 noundef 16, ptr noundef @.str.2)
  store i32 -1094995529, ptr %2, align 4
  store i32 1, ptr %5, align 4
  br label %258

26:                                               ; preds = %17
  %27 = load ptr, ptr %3, align 8, !tbaa !4
  %28 = getelementptr inbounds nuw %struct.AVCodecContext, ptr %27, i32 0, i32 71
  %29 = getelementptr inbounds nuw %struct.AVChannelLayout, ptr %28, i32 0, i32 1
  %30 = load i32, ptr %29, align 4, !tbaa !35
  %31 = icmp slt i32 %30, 1
  br i1 %31, label %38, label %32

32:                                               ; preds = %26
  %33 = load ptr, ptr %3, align 8, !tbaa !4
  %34 = getelementptr inbounds nuw %struct.AVCodecContext, ptr %33, i32 0, i32 71
  %35 = getelementptr inbounds nuw %struct.AVChannelLayout, ptr %34, i32 0, i32 1
  %36 = load i32, ptr %35, align 4, !tbaa !35
  %37 = icmp sgt i32 %36, 2
  br i1 %37, label %38, label %39

38:                                               ; preds = %32, %26
  store i32 -1094995529, ptr %2, align 4
  store i32 1, ptr %5, align 4
  br label %258

39:                                               ; preds = %32
  %40 = load ptr, ptr %3, align 8, !tbaa !4
  %41 = getelementptr inbounds nuw %struct.AVCodecContext, ptr %40, i32 0, i32 12
  %42 = load ptr, ptr %41, align 8, !tbaa !33
  %43 = getelementptr inbounds i8, ptr %42, i64 1
  %44 = load i32, ptr %43, align 1, !tbaa !34
  %45 = load ptr, ptr %3, align 8, !tbaa !4
  %46 = getelementptr inbounds nuw %struct.AVCodecContext, ptr %45, i32 0, i32 71
  %47 = getelementptr inbounds nuw %struct.AVChannelLayout, ptr %46, i32 0, i32 1
  %48 = load i32, ptr %47, align 4, !tbaa !35
  %49 = udiv i32 %44, %48
  %50 = zext i32 %49 to i64
  %51 = load ptr, ptr %4, align 8, !tbaa !29
  %52 = getelementptr inbounds nuw %struct.BonkContext, ptr %51, i32 0, i32 6
  store i64 %50, ptr %52, align 8, !tbaa !36
  %53 = load ptr, ptr %4, align 8, !tbaa !29
  %54 = getelementptr inbounds nuw %struct.BonkContext, ptr %53, i32 0, i32 6
  %55 = load i64, ptr %54, align 8, !tbaa !36
  %56 = icmp ne i64 %55, 0
  br i1 %56, label %60, label %57

57:                                               ; preds = %39
  %58 = load ptr, ptr %4, align 8, !tbaa !29
  %59 = getelementptr inbounds nuw %struct.BonkContext, ptr %58, i32 0, i32 6
  store i64 -1, ptr %59, align 8, !tbaa !36
  br label %60

60:                                               ; preds = %57, %39
  %61 = load ptr, ptr %3, align 8, !tbaa !4
  %62 = getelementptr inbounds nuw %struct.AVCodecContext, ptr %61, i32 0, i32 12
  %63 = load ptr, ptr %62, align 8, !tbaa !33
  %64 = getelementptr inbounds i8, ptr %63, i64 10
  %65 = load i8, ptr %64, align 1, !tbaa !34
  %66 = zext i8 %65 to i32
  %67 = icmp ne i32 %66, 0
  %68 = zext i1 %67 to i32
  %69 = load ptr, ptr %4, align 8, !tbaa !29
  %70 = getelementptr inbounds nuw %struct.BonkContext, ptr %69, i32 0, i32 7
  store i32 %68, ptr %70, align 8, !tbaa !40
  %71 = load ptr, ptr %3, align 8, !tbaa !4
  %72 = getelementptr inbounds nuw %struct.AVCodecContext, ptr %71, i32 0, i32 12
  %73 = load ptr, ptr %72, align 8, !tbaa !33
  %74 = getelementptr inbounds i8, ptr %73, i64 11
  %75 = load i8, ptr %74, align 1, !tbaa !34
  %76 = zext i8 %75 to i32
  %77 = icmp ne i32 %76, 0
  %78 = zext i1 %77 to i32
  %79 = load ptr, ptr %4, align 8, !tbaa !29
  %80 = getelementptr inbounds nuw %struct.BonkContext, ptr %79, i32 0, i32 8
  store i32 %78, ptr %80, align 4, !tbaa !41
  %81 = load ptr, ptr %3, align 8, !tbaa !4
  %82 = getelementptr inbounds nuw %struct.AVCodecContext, ptr %81, i32 0, i32 12
  %83 = load ptr, ptr %82, align 8, !tbaa !33
  %84 = getelementptr inbounds i8, ptr %83, i64 12
  %85 = load i16, ptr %84, align 1, !tbaa !34
  %86 = zext i16 %85 to i32
  %87 = load ptr, ptr %4, align 8, !tbaa !29
  %88 = getelementptr inbounds nuw %struct.BonkContext, ptr %87, i32 0, i32 9
  store i32 %86, ptr %88, align 8, !tbaa !42
  %89 = load ptr, ptr %4, align 8, !tbaa !29
  %90 = getelementptr inbounds nuw %struct.BonkContext, ptr %89, i32 0, i32 9
  %91 = load i32, ptr %90, align 8, !tbaa !42
  %92 = icmp ne i32 %91, 0
  br i1 %92, label %93, label %98

93:                                               ; preds = %60
  %94 = load ptr, ptr %4, align 8, !tbaa !29
  %95 = getelementptr inbounds nuw %struct.BonkContext, ptr %94, i32 0, i32 9
  %96 = load i32, ptr %95, align 8, !tbaa !42
  %97 = icmp sgt i32 %96, 2048
  br i1 %97, label %98, label %99

98:                                               ; preds = %93, %60
  store i32 -22, ptr %2, align 4
  store i32 1, ptr %5, align 4
  br label %258

99:                                               ; preds = %93
  %100 = load ptr, ptr %3, align 8, !tbaa !4
  %101 = getelementptr inbounds nuw %struct.AVCodecContext, ptr %100, i32 0, i32 12
  %102 = load ptr, ptr %101, align 8, !tbaa !33
  %103 = getelementptr inbounds i8, ptr %102, i64 14
  %104 = load i8, ptr %103, align 1, !tbaa !34
  %105 = zext i8 %104 to i32
  %106 = load ptr, ptr %4, align 8, !tbaa !29
  %107 = getelementptr inbounds nuw %struct.BonkContext, ptr %106, i32 0, i32 10
  store i32 %105, ptr %107, align 4, !tbaa !43
  %108 = load ptr, ptr %4, align 8, !tbaa !29
  %109 = getelementptr inbounds nuw %struct.BonkContext, ptr %108, i32 0, i32 10
  %110 = load i32, ptr %109, align 4, !tbaa !43
  %111 = icmp ne i32 %110, 0
  br i1 %111, label %113, label %112

112:                                              ; preds = %99
  store i32 -22, ptr %2, align 4
  store i32 1, ptr %5, align 4
  br label %258

113:                                              ; preds = %99
  %114 = load ptr, ptr %3, align 8, !tbaa !4
  %115 = getelementptr inbounds nuw %struct.AVCodecContext, ptr %114, i32 0, i32 12
  %116 = load ptr, ptr %115, align 8, !tbaa !33
  %117 = getelementptr inbounds i8, ptr %116, i64 15
  %118 = load i16, ptr %117, align 1, !tbaa !34
  %119 = zext i16 %118 to i32
  %120 = load ptr, ptr %4, align 8, !tbaa !29
  %121 = getelementptr inbounds nuw %struct.BonkContext, ptr %120, i32 0, i32 11
  store i32 %119, ptr %121, align 8, !tbaa !44
  %122 = load ptr, ptr %4, align 8, !tbaa !29
  %123 = getelementptr inbounds nuw %struct.BonkContext, ptr %122, i32 0, i32 11
  %124 = load i32, ptr %123, align 8, !tbaa !44
  %125 = icmp ne i32 %124, 0
  br i1 %125, label %127, label %126

126:                                              ; preds = %113
  store i32 -22, ptr %2, align 4
  store i32 1, ptr %5, align 4
  br label %258

127:                                              ; preds = %113
  %128 = load ptr, ptr %4, align 8, !tbaa !29
  %129 = getelementptr inbounds nuw %struct.BonkContext, ptr %128, i32 0, i32 10
  %130 = load i32, ptr %129, align 4, !tbaa !43
  %131 = load ptr, ptr %4, align 8, !tbaa !29
  %132 = getelementptr inbounds nuw %struct.BonkContext, ptr %131, i32 0, i32 11
  %133 = load i32, ptr %132, align 8, !tbaa !44
  %134 = mul nsw i32 %130, %133
  %135 = load ptr, ptr %4, align 8, !tbaa !29
  %136 = getelementptr inbounds nuw %struct.BonkContext, ptr %135, i32 0, i32 9
  %137 = load i32, ptr %136, align 8, !tbaa !42
  %138 = icmp slt i32 %134, %137
  br i1 %138, label %139, label %140

139:                                              ; preds = %127
  store i32 -1094995529, ptr %2, align 4
  store i32 1, ptr %5, align 4
  br label %258

140:                                              ; preds = %127
  %141 = load ptr, ptr %4, align 8, !tbaa !29
  %142 = getelementptr inbounds nuw %struct.BonkContext, ptr %141, i32 0, i32 11
  %143 = load i32, ptr %142, align 8, !tbaa !44
  %144 = load ptr, ptr %3, align 8, !tbaa !4
  %145 = getelementptr inbounds nuw %struct.AVCodecContext, ptr %144, i32 0, i32 71
  %146 = getelementptr inbounds nuw %struct.AVChannelLayout, ptr %145, i32 0, i32 1
  %147 = load i32, ptr %146, align 4, !tbaa !35
  %148 = mul nsw i32 %143, %147
  %149 = load ptr, ptr %4, align 8, !tbaa !29
  %150 = getelementptr inbounds nuw %struct.BonkContext, ptr %149, i32 0, i32 10
  %151 = load i32, ptr %150, align 4, !tbaa !43
  %152 = mul nsw i32 %148, %151
  %153 = sext i32 %152 to i64
  %154 = mul nsw i64 %153, 16
  %155 = load ptr, ptr %4, align 8, !tbaa !29
  %156 = getelementptr inbounds nuw %struct.BonkContext, ptr %155, i32 0, i32 3
  store i64 %154, ptr %156, align 8, !tbaa !45
  %157 = load ptr, ptr %4, align 8, !tbaa !29
  %158 = getelementptr inbounds nuw %struct.BonkContext, ptr %157, i32 0, i32 3
  %159 = load i64, ptr %158, align 8, !tbaa !45
  %160 = icmp sgt i64 %159, 268435447
  br i1 %160, label %161, label %162

161:                                              ; preds = %140
  store i32 -1094995529, ptr %2, align 4
  store i32 1, ptr %5, align 4
  br label %258

162:                                              ; preds = %140
  %163 = load ptr, ptr %4, align 8, !tbaa !29
  %164 = getelementptr inbounds nuw %struct.BonkContext, ptr %163, i32 0, i32 3
  %165 = load i64, ptr %164, align 8, !tbaa !45
  %166 = add nsw i64 %165, 64
  %167 = call noalias ptr @av_calloc(i64 noundef %166, i64 noundef 1)
  %168 = load ptr, ptr %4, align 8, !tbaa !29
  %169 = getelementptr inbounds nuw %struct.BonkContext, ptr %168, i32 0, i32 2
  store ptr %167, ptr %169, align 8, !tbaa !46
  %170 = load ptr, ptr %4, align 8, !tbaa !29
  %171 = getelementptr inbounds nuw %struct.BonkContext, ptr %170, i32 0, i32 2
  %172 = load ptr, ptr %171, align 8, !tbaa !46
  %173 = icmp ne ptr %172, null
  br i1 %173, label %175, label %174

174:                                              ; preds = %162
  store i32 -12, ptr %2, align 4
  store i32 1, ptr %5, align 4
  br label %258

175:                                              ; preds = %162
  %176 = load ptr, ptr %4, align 8, !tbaa !29
  %177 = getelementptr inbounds nuw %struct.BonkContext, ptr %176, i32 0, i32 11
  %178 = load i32, ptr %177, align 8, !tbaa !44
  %179 = sext i32 %178 to i64
  %180 = call noalias ptr @av_calloc(i64 noundef %179, i64 noundef 4)
  %181 = load ptr, ptr %4, align 8, !tbaa !29
  %182 = getelementptr inbounds nuw %struct.BonkContext, ptr %181, i32 0, i32 15
  store ptr %180, ptr %182, align 8, !tbaa !47
  %183 = load ptr, ptr %4, align 8, !tbaa !29
  %184 = getelementptr inbounds nuw %struct.BonkContext, ptr %183, i32 0, i32 15
  %185 = load ptr, ptr %184, align 8, !tbaa !47
  %186 = icmp ne ptr %185, null
  br i1 %186, label %188, label %187

187:                                              ; preds = %175
  store i32 -12, ptr %2, align 4
  store i32 1, ptr %5, align 4
  br label %258

188:                                              ; preds = %175
  %189 = load ptr, ptr %4, align 8, !tbaa !29
  %190 = getelementptr inbounds nuw %struct.BonkContext, ptr %189, i32 0, i32 11
  %191 = load i32, ptr %190, align 8, !tbaa !44
  %192 = load ptr, ptr %4, align 8, !tbaa !29
  %193 = getelementptr inbounds nuw %struct.BonkContext, ptr %192, i32 0, i32 10
  %194 = load i32, ptr %193, align 4, !tbaa !43
  %195 = mul nsw i32 %191, %194
  %196 = sext i32 %195 to i64
  %197 = call noalias ptr @av_calloc(i64 noundef %196, i64 noundef 4)
  %198 = load ptr, ptr %4, align 8, !tbaa !29
  %199 = getelementptr inbounds nuw %struct.BonkContext, ptr %198, i32 0, i32 14
  %200 = getelementptr inbounds [2 x ptr], ptr %199, i64 0, i64 0
  store ptr %197, ptr %200, align 8, !tbaa !48
  %201 = load ptr, ptr %4, align 8, !tbaa !29
  %202 = getelementptr inbounds nuw %struct.BonkContext, ptr %201, i32 0, i32 11
  %203 = load i32, ptr %202, align 8, !tbaa !44
  %204 = load ptr, ptr %4, align 8, !tbaa !29
  %205 = getelementptr inbounds nuw %struct.BonkContext, ptr %204, i32 0, i32 10
  %206 = load i32, ptr %205, align 4, !tbaa !43
  %207 = mul nsw i32 %203, %206
  %208 = sext i32 %207 to i64
  %209 = call noalias ptr @av_calloc(i64 noundef %208, i64 noundef 4)
  %210 = load ptr, ptr %4, align 8, !tbaa !29
  %211 = getelementptr inbounds nuw %struct.BonkContext, ptr %210, i32 0, i32 14
  %212 = getelementptr inbounds [2 x ptr], ptr %211, i64 0, i64 1
  store ptr %209, ptr %212, align 8, !tbaa !48
  %213 = load ptr, ptr %4, align 8, !tbaa !29
  %214 = getelementptr inbounds nuw %struct.BonkContext, ptr %213, i32 0, i32 14
  %215 = getelementptr inbounds [2 x ptr], ptr %214, i64 0, i64 0
  %216 = load ptr, ptr %215, align 8, !tbaa !48
  %217 = icmp ne ptr %216, null
  br i1 %217, label %218, label %224

218:                                              ; preds = %188
  %219 = load ptr, ptr %4, align 8, !tbaa !29
  %220 = getelementptr inbounds nuw %struct.BonkContext, ptr %219, i32 0, i32 14
  %221 = getelementptr inbounds [2 x ptr], ptr %220, i64 0, i64 1
  %222 = load ptr, ptr %221, align 8, !tbaa !48
  %223 = icmp ne ptr %222, null
  br i1 %223, label %225, label %224

224:                                              ; preds = %218, %188
  store i32 -12, ptr %2, align 4
  store i32 1, ptr %5, align 4
  br label %258

225:                                              ; preds = %218
  %226 = load ptr, ptr %4, align 8, !tbaa !29
  %227 = getelementptr inbounds nuw %struct.BonkContext, ptr %226, i32 0, i32 3
  %228 = load i64, ptr %227, align 8, !tbaa !45
  %229 = mul nsw i64 %228, 8
  %230 = call noalias ptr @av_calloc(i64 noundef %229, i64 noundef 8)
  %231 = load ptr, ptr %4, align 8, !tbaa !29
  %232 = getelementptr inbounds nuw %struct.BonkContext, ptr %231, i32 0, i32 17
  store ptr %230, ptr %232, align 8, !tbaa !49
  %233 = load ptr, ptr %4, align 8, !tbaa !29
  %234 = getelementptr inbounds nuw %struct.BonkContext, ptr %233, i32 0, i32 17
  %235 = load ptr, ptr %234, align 8, !tbaa !49
  %236 = icmp ne ptr %235, null
  br i1 %236, label %238, label %237

237:                                              ; preds = %225
  store i32 -12, ptr %2, align 4
  store i32 1, ptr %5, align 4
  br label %258

238:                                              ; preds = %225
  call void @llvm.lifetime.start.p0(i64 4, ptr %6) #11
  store i32 0, ptr %6, align 4, !tbaa !50
  br label %239

239:                                              ; preds = %254, %238
  %240 = load i32, ptr %6, align 4, !tbaa !50
  %241 = icmp slt i32 %240, 512
  br i1 %241, label %243, label %242

242:                                              ; preds = %239
  store i32 2, ptr %5, align 4
  call void @llvm.lifetime.end.p0(i64 4, ptr %6) #11
  br label %257

243:                                              ; preds = %239
  %244 = load i32, ptr %6, align 4, !tbaa !50
  %245 = add nsw i32 %244, 1
  %246 = sitofp i32 %245 to double
  %247 = call nsz double @llvm.sqrt.f64(double %246)
  %248 = fptoui double %247 to i8
  %249 = load ptr, ptr %4, align 8, !tbaa !29
  %250 = getelementptr inbounds nuw %struct.BonkContext, ptr %249, i32 0, i32 16
  %251 = load i32, ptr %6, align 4, !tbaa !50
  %252 = sext i32 %251 to i64
  %253 = getelementptr inbounds [2048 x i8], ptr %250, i64 0, i64 %252
  store i8 %248, ptr %253, align 1, !tbaa !34
  br label %254

254:                                              ; preds = %243
  %255 = load i32, ptr %6, align 4, !tbaa !50
  %256 = add nsw i32 %255, 1
  store i32 %256, ptr %6, align 4, !tbaa !50
  br label %239, !llvm.loop !51

257:                                              ; preds = %242
  store i32 0, ptr %2, align 4
  store i32 1, ptr %5, align 4
  br label %258

258:                                              ; preds = %257, %237, %224, %187, %174, %161, %139, %126, %112, %98, %38, %24, %16
  call void @llvm.lifetime.end.p0(i64 8, ptr %4) #11
  %259 = load i32, ptr %2, align 4
  ret i32 %259
}