; Function Attrs: cold nounwind optsize uwtable
define internal range(i32 -1094995529, 1) i32 @bonk_init(ptr noundef initializes((348, 352)) %0) #0 {
  %2 = getelementptr inbounds nuw i8, ptr %0, i64 32
  %3 = load ptr, ptr %2, align 8, !tbaa !4
  %4 = getelementptr inbounds nuw i8, ptr %0, i64 348
  store i32 6, ptr %4, align 4, !tbaa !27
  %5 = getelementptr inbounds nuw i8, ptr %0, i64 80
  %6 = load i32, ptr %5, align 8, !tbaa !28
  %7 = icmp slt i32 %6, 17
  br i1 %7, label %.loopexit, label %8

8:                                                ; preds = %1
  %9 = getelementptr inbounds nuw i8, ptr %0, i64 72
  %10 = load ptr, ptr %9, align 8, !tbaa !29
  %11 = load i8, ptr %10, align 1, !tbaa !30
  %.not = icmp eq i8 %11, 0
  br i1 %.not, label %13, label %12

12:                                               ; preds = %8
  tail call void (ptr, i32, ptr, ...) @av_log(ptr noundef nonnull %0, i32 noundef 16, ptr noundef nonnull @.str.2) #8
  br label %.loopexit

13:                                               ; preds = %8
  %14 = getelementptr inbounds nuw i8, ptr %0, i64 356
  %15 = load i32, ptr %14, align 4, !tbaa !31
  %16 = add i32 %15, -3
  %or.cond = icmp ult i32 %16, -2
  br i1 %or.cond, label %.loopexit, label %17

17:                                               ; preds = %13
  %18 = getelementptr inbounds nuw i8, ptr %10, i64 1
  %19 = load i32, ptr %18, align 1, !tbaa !30
  %20 = udiv i32 %19, %15
  %21 = zext i32 %20 to i64
  %22 = getelementptr inbounds nuw i8, ptr %3, i64 64
  %.not61 = icmp ugt i32 %15, %19
  %spec.select = select i1 %.not61, i64 -1, i64 %21
  store i64 %spec.select, ptr %22, align 8, !tbaa !32
  %23 = getelementptr inbounds nuw i8, ptr %10, i64 10
  %24 = load i8, ptr %23, align 1, !tbaa !30
  %25 = icmp ne i8 %24, 0
  %26 = zext i1 %25 to i32
  %27 = getelementptr inbounds nuw i8, ptr %3, i64 72
  store i32 %26, ptr %27, align 8, !tbaa !36
  %28 = getelementptr inbounds nuw i8, ptr %10, i64 11
  %29 = load i8, ptr %28, align 1, !tbaa !30
  %30 = icmp ne i8 %29, 0
  %31 = zext i1 %30 to i32
  %32 = getelementptr inbounds nuw i8, ptr %3, i64 76
  store i32 %31, ptr %32, align 4, !tbaa !37
  %33 = getelementptr inbounds nuw i8, ptr %10, i64 12
  %34 = load i16, ptr %33, align 1, !tbaa !30
  %35 = zext i16 %34 to i32
  %36 = getelementptr inbounds nuw i8, ptr %3, i64 80
  store i32 %35, ptr %36, align 8, !tbaa !38
  %37 = add i16 %34, -2049
  %or.cond70 = icmp ult i16 %37, -2048
  br i1 %or.cond70, label %.loopexit, label %38

38:                                               ; preds = %17
  %39 = getelementptr inbounds nuw i8, ptr %10, i64 14
  %40 = load i8, ptr %39, align 1, !tbaa !30
  %41 = zext i8 %40 to i32
  %42 = getelementptr inbounds nuw i8, ptr %3, i64 84
  store i32 %41, ptr %42, align 4, !tbaa !39
  %.not63 = icmp eq i8 %40, 0
  br i1 %.not63, label %.loopexit, label %43

43:                                               ; preds = %38
  %44 = getelementptr inbounds nuw i8, ptr %10, i64 15
  %45 = load i16, ptr %44, align 1, !tbaa !30
  %46 = zext i16 %45 to i32
  %47 = getelementptr inbounds nuw i8, ptr %3, i64 88
  store i32 %46, ptr %47, align 8, !tbaa !40
  %.not64 = icmp eq i16 %45, 0
  br i1 %.not64, label %.loopexit, label %48

48:                                               ; preds = %43
  %49 = mul nuw nsw i32 %46, %41
  %50 = icmp samesign ult i32 %49, %35
  br i1 %50, label %.loopexit, label %51

51:                                               ; preds = %48
  %52 = mul nuw nsw i32 %15, %41
  %53 = mul nuw nsw i32 %52, %46
  %54 = shl nuw nsw i32 %53, 4
  %55 = zext nneg i32 %54 to i64
  %56 = getelementptr inbounds nuw i8, ptr %3, i64 48
  store i64 %55, ptr %56, align 8, !tbaa !41
  %57 = icmp samesign ugt i32 %53, 16777215
  br i1 %57, label %.loopexit, label %58

58:                                               ; preds = %51
  %59 = add nuw nsw i64 %55, 64
  %60 = tail call noalias ptr @av_calloc(i64 noundef %59, i64 noundef 1) #8
  %61 = getelementptr inbounds nuw i8, ptr %3, i64 40
  store ptr %60, ptr %61, align 8, !tbaa !42
  %.not65 = icmp eq ptr %60, null
  br i1 %.not65, label %.loopexit, label %62

62:                                               ; preds = %58
  %63 = load i32, ptr %47, align 8, !tbaa !40
  %64 = sext i32 %63 to i64
  %65 = tail call noalias ptr @av_calloc(i64 noundef %64, i64 noundef 4) #8
  %66 = getelementptr inbounds nuw i8, ptr %3, i64 24688
  store ptr %65, ptr %66, align 8, !tbaa !43
  %.not66 = icmp eq ptr %65, null
  br i1 %.not66, label %.loopexit, label %67

67:                                               ; preds = %62
  %68 = load i32, ptr %47, align 8, !tbaa !40
  %69 = load i32, ptr %42, align 4, !tbaa !39
  %70 = mul nsw i32 %69, %68
  %71 = sext i32 %70 to i64
  %72 = tail call noalias ptr @av_calloc(i64 noundef %71, i64 noundef 4) #8
  %73 = getelementptr inbounds nuw i8, ptr %3, i64 24672
  store ptr %72, ptr %73, align 8, !tbaa !44
  %74 = load i32, ptr %47, align 8, !tbaa !40
  %75 = load i32, ptr %42, align 4, !tbaa !39
  %76 = mul nsw i32 %75, %74
  %77 = sext i32 %76 to i64
  %78 = tail call noalias ptr @av_calloc(i64 noundef %77, i64 noundef 4) #8
  %79 = getelementptr inbounds nuw i8, ptr %3, i64 24680
  store ptr %78, ptr %79, align 8, !tbaa !44
  %80 = load ptr, ptr %73, align 8, !tbaa !44
  %.not67 = icmp eq ptr %80, null
  %.not68 = icmp eq ptr %78, null
  %or.cond71 = select i1 %.not67, i1 true, i1 %.not68
  br i1 %or.cond71, label %.loopexit, label %81

81:                                               ; preds = %67
  %82 = load i64, ptr %56, align 8, !tbaa !41
  %83 = shl nsw i64 %82, 3
  %84 = tail call noalias ptr @av_calloc(i64 noundef %83, i64 noundef 8) #8
  %85 = getelementptr inbounds nuw i8, ptr %3, i64 26744
  store ptr %84, ptr %85, align 8, !tbaa !45
  %.not69 = icmp eq ptr %84, null
  br i1 %.not69, label %.loopexit, label %.preheader

.preheader:                                       ; preds = %81
  %86 = getelementptr inbounds nuw i8, ptr %3, i64 24696
  br label %87

87:                                               ; preds = %.preheader, %87
  %indvars.iv = phi i64 [ 0, %.preheader ], [ %indvars.iv.next, %87 ]
  %indvars.iv.next = add nuw nsw i64 %indvars.iv, 1
  %88 = trunc nuw nsw i64 %indvars.iv.next to i32
  %89 = uitofp nneg i32 %88 to double
  %90 = tail call nsz double @llvm.sqrt.f64(double %89)
  %91 = fptoui double %90 to i8
  %92 = getelementptr inbounds nuw [2048 x i8], ptr %86, i64 0, i64 %indvars.iv
  store i8 %91, ptr %92, align 1, !tbaa !30
  %exitcond.not = icmp eq i64 %indvars.iv.next, 512
  br i1 %exitcond.not, label %.loopexit, label %87, !llvm.loop !46

.loopexit:                                        ; preds = %87, %81, %67, %62, %58, %51, %48, %43, %38, %17, %13, %1, %12
  %.056 = phi i32 [ -1094995529, %12 ], [ -22, %1 ], [ -1094995529, %13 ], [ -22, %17 ], [ -22, %38 ], [ -22, %43 ], [ -1094995529, %48 ], [ -1094995529, %51 ], [ -12, %58 ], [ -12, %62 ], [ -12, %67 ], [ -12, %81 ], [ 0, %87 ]
  ret i32 %.056
}